-----BEGIN RSA PRIVATE KEY-----
Proc-Type: 4,ENCRYPTED
DEK-Info: DES-EDE3-CBC,EDAA1C486ACAF94E

6v3pxxVDlcbswCqXzJzDhbCkxRkPy1Za0oBpspJon62ICS0aL0hDexFko588EG1n
9Tg7Dgd9CNfGBTEnnFNtJkSzgiQjZ/V66eGMCu7uKZWcavYYtqM44C3BnNME2ltC
MetTgh6Yzz4Ryy7YknM1qAOG6grGl2YpSDxSACLltJd2RMxx+CreynOBkMih7y7Q
mIysXCApbelvhR49Vmk9xyEn9xB6p3aDvbvltRtOggwL3MFGb1DFHBy0msVQG2TW
TDpeGPC9v/eFALP5V9TiDbxgNZGwKiWy4aIRmGXNtyO4/b7jK+2BV7iPsjTjty7M
C5iTcEhljX1hW38vVtX5JU0i7dJS8TuM+wmzwl3afF2iOlJMOO8nxccUpS+4eqvS
4PzSWqiIhf4NKPiUyLjCWWpqORkoGcyIhDHARkaOY0x95sJSkBKoRXxmb/C1ECkW
FU2h1pZ5gBcqGgR9RB1OzRUy7Ce/VkGOjipO4VN+3MkYJC9R+TET0X64zLFRMcZL
b6to6eJLyryV5zFz3HzM0WCrYNkBftfQHG5yoiEebsGzG9OoGDt1V4D6Uh0Iw55h
N/no3sR6pKjUNNYGb6Rve5GEzTOvYKKbZJRxPh9C3WoBQ8ihsn6V2/rI6EC30fTE
ryse88e+UsLRZqcr8RKGMpxwepWnXGdVLhg7auIUbuklIK23fi/J0C1twVDkinz6
UcGVJOSaA0UaUI7ne+SYygMYQOYzlE/M18H6+abLIxa/lvcM4yANkKC8AHy2hI1V
LWJLsh4FL+pDkTVB5Y2JMMyrcdZ41ylti1sSv1wO7kC3p8xkcK4fxA==
-----END RSA PRIVATE KEY-----
Certificate:
    Data:
        Version: 3 (0x2)
        Serial Number: 4097 (0x1001)
    Signature Algorithm: sha1WithRSAEncryption
        Issuer: C=au, ST=md, L=gai, O=pki, OU=pki, CN=PKILabServer.com/emailAddress=abc
        Validity
            Not Before: Nov  5 22:30:48 2016 GMT
            Not After : Nov  5 22:30:48 2017 GMT
        Subject: C=au, ST=md, O=pki, OU=pki, CN=PKILabServer.com/emailAddress=abc
        Subject Public Key Info:
            Public Key Algorithm: rsaEncryption
                Public-Key: (1024 bit)
                Modulus:
                    00:da:65:ce:fa:bb:ea:26:4a:10:63:b1:8f:cb:2b:
                    98:1a:c1:d8:68:9c:68:f4:33:9b:af:95:45:d2:e1:
                    76:ba:72:18:4b:2b:70:09:18:6f:df:7b:73:2e:c6:
                    f2:0c:4a:e7:d9:46:3d:48:df:5d:eb:92:07:40:b4:
                    51:d6:3f:38:61:dc:fe:01:40:2f:9f:2b:a1:fb:1f:
                    cd:3d:e0:5a:4f:47:1b:13:54:3b:ec:ef:e6:b8:fb:
                    f2:21:d0:b8:33:2a:2a:c3:0f:e9:1f:ab:92:51:cf:
                    f1:b3:79:34:3f:16:7c:cf:0d:24:a2:96:0a:6b:49:
                    7f:d9:e9:97:b2:5f:7b:45:df
                Exponent: 65537 (0x10001)
        X509v3 extensions:
            X509v3 Basic Constraints: 
                CA:FALSE
            Netscape Comment: 
                OpenSSL Generated Certificate
            X509v3 Subject Key Identifier: 
                D8:DF:00:BF:A6:40:F1:1D:15:A0:3D:D9:C5:80:5E:7A:0F:B5:A3:8B
            X509v3 Authority Key Identifier: 
                keyid:CE:9A:AD:18:0A:F0:0F:D0:40:77:5F:E4:20:AE:E8:16:C4:83:F9:1D

    Signature Algorithm: sha1WithRSAEncryption
         ae:52:07:e5:81:f6:70:ad:74:32:b9:c5:97:64:77:8e:99:cc:
         8f:95:1d:c4:31:e0:06:49:75:21:c5:70:9e:73:b6:de:7c:66:
         08:99:b0:0f:ee:79:16:14:2e:d8:6f:fe:1f:d3:a1:09:c6:09:
         72:bb:ec:f2:79:66:19:3a:a0:db:0a:59:26:6b:a0:17:83:c7:
         fb:3a:4e:1b:f8:c2:ae:8b:68:34:48:d6:8f:8a:29:27:94:c7:
         d4:21:28:f5:62:6b:c0:66:6d:e9:59:22:ee:dd:62:50:6c:e2:
         ac:36:b4:b9:b0:03:50:00:4b:43:c1:9a:1f:78:c8:85:1c:49:
         d8:bf
-----BEGIN CERTIFICATE-----
MIICyjCCAjOgAwIBAgICEAEwDQYJKoZIhvcNAQEFBQAwczELMAkGA1UEBhMCYXUx
CzAJBgNVBAgTAm1kMQwwCgYDVQQHEwNnYWkxDDAKBgNVBAoTA3BraTEMMAoGA1UE
CxMDcGtpMRkwFwYDVQQDExBQS0lMYWJTZXJ2ZXIuY29tMRIwEAYJKoZIhvcNAQkB
FgNhYmMwHhcNMTYxMTA1MjIzMDQ4WhcNMTcxMTA1MjIzMDQ4WjBlMQswCQYDVQQG
EwJhdTELMAkGA1UECBMCbWQxDDAKBgNVBAoTA3BraTEMMAoGA1UECxMDcGtpMRkw
FwYDVQQDExBQS0lMYWJTZXJ2ZXIuY29tMRIwEAYJKoZIhvcNAQkBFgNhYmMwgZ8w
DQYJKoZIhvcNAQEBBQADgY0AMIGJAoGBANplzvq76iZKEGOxj8srmBrB2GicaPQz
m6+VRdLhdrpyGEsrcAkYb997cy7G8gxK59lGPUjfXeuSB0C0UdY/OGHc/gFAL58r
ofsfzT3gWk9HGxNUO+zv5rj78iHQuDMqKsMP6R+rklHP8bN5ND8WfM8NJKKWCmtJ
f9npl7Jfe0XfAgMBAAGjezB5MAkGA1UdEwQCMAAwLAYJYIZIAYb4QgENBB8WHU9w
ZW5TU0wgR2VuZXJhdGVkIENlcnRpZmljYXRlMB0GA1UdDgQWBBTY3wC/pkDxHRWg
PdnFgF56D7WjizAfBgNVHSMEGDAWgBTOmq0YCvAP0EB3X+QgrugWxIP5HTANBgkq
hkiG9w0BAQUFAAOBgQCuUgflgfZwrXQyucWXZHeOmcyPlR3EMeAGSXUhxXCec7be
fGYImbAP7nkWFC7Yb/4f06EJxglyu+zyeWYZOqDbClkma6AXg8f7Ok4b+MKui2g0
SNaPiiknlMfUISj1YmvAZm3pWSLu3WJQbOKsNrS5sANQAEtDwZofeMiFHEnYvw==
-----END CERTIFICATE-----
